target datalayout = "e-m:e-p270:32:32-p271:32:32-p272:64:64-i64:64-i128:128-f80:128-n8:16:32:64-S128"
target triple = "x86_64-pc-linux-gnu"

%struct.pg_wchar_tbl = type { ptr, ptr, ptr, ptr, ptr, ptr, i32 }
%struct.FunctionCallInfoBaseData = type { ptr, ptr, ptr, i32, i8, i16, [0 x %struct.NullableDatum] }
%struct.NullableDatum = type { i64, i8 }
%struct.nameData = type { [64 x i8] }
%struct.varattrib_1b = type { i8, [0 x i8] }
%struct.varattrib_1b_e = type { i8, i8, [0 x i8] }
%struct.anon = type { i32, [0 x i8] }

@.str.1 = private unnamed_addr constant [10 x i8] c"mbutils.c\00", align 1
@.str.6 = private unnamed_addr constant [34 x i8] c"invalid source encoding name \22%s\22\00", align 1
@__func__.pg_convert = private unnamed_addr constant [11 x i8] c"pg_convert\00", align 1
@.str.7 = private unnamed_addr constant [39 x i8] c"invalid destination encoding name \22%s\22\00", align 1
@pg_wchar_table = external constant [0 x %struct.pg_wchar_tbl], align 8

; Function Attrs: inlinehint nounwind uwtable
define internal i64 @PointerGetDatum(ptr noundef %0) #0 {
  %2 = alloca ptr, align 8
  store ptr %0, ptr %2, align 8
  %3 = load ptr, ptr %2, align 8
  %4 = ptrtoint ptr %3 to i64
  ret i64 %4
}

; Function Attrs: nounwind uwtable
define dso_local zeroext i1 @pg_verify_mbstr(i32 noundef %0, ptr noundef %1, i32 noundef %2, i1 noundef zeroext %3) #1 {
  %5 = alloca i1, align 1
  %6 = alloca i32, align 4
  %7 = alloca ptr, align 8
  %8 = alloca i32, align 4
  %9 = alloca i8, align 1
  %10 = alloca i32, align 4
  %11 = alloca i32, align 4
  store i32 %0, ptr %6, align 4
  store ptr %1, ptr %7, align 8
  store i32 %2, ptr %8, align 4
  %12 = zext i1 %3 to i8
  store i8 %12, ptr %9, align 1
  call void @llvm.lifetime.start.p0(i64 4, ptr %10) #9
  %13 = load i32, ptr %6, align 4
  %14 = sext i32 %13 to i64
  %15 = getelementptr inbounds [0 x %struct.pg_wchar_tbl], ptr @pg_wchar_table, i64 0, i64 %14
  %16 = getelementptr inbounds nuw %struct.pg_wchar_tbl, ptr %15, i32 0, i32 5
  %17 = load ptr, ptr %16, align 8
  %18 = load ptr, ptr %7, align 8
  %19 = load i32, ptr %8, align 4
  %20 = call i32 %17(ptr noundef %18, i32 noundef %19)
  store i32 %20, ptr %10, align 4
  %21 = load i32, ptr %10, align 4
  %22 = load i32, ptr %8, align 4
  %23 = icmp ne i32 %21, %22
  br i1 %23, label %24, label %37

24:                                               ; preds = %4
  %25 = load i8, ptr %9, align 1, !range !4, !noundef !5
  %26 = trunc i8 %25 to i1
  br i1 %26, label %27, label %28

27:                                               ; preds = %24
  store i1 false, ptr %5, align 1
  store i32 1, ptr %11, align 4
  br label %38

28:                                               ; preds = %24
  %29 = load i32, ptr %6, align 4
  %30 = load ptr, ptr %7, align 8
  %31 = load i32, ptr %10, align 4
  %32 = sext i32 %31 to i64
  %33 = getelementptr inbounds i8, ptr %30, i64 %32
  %34 = load i32, ptr %8, align 4
  %35 = load i32, ptr %10, align 4
  %36 = sub i32 %34, %35
  call void @report_invalid_encoding(i32 noundef %29, ptr noundef %33, i32 noundef %36) #12
  unreachable

37:                                               ; preds = %4
  store i1 true, ptr %5, align 1
  store i32 1, ptr %11, align 4
  br label %38

38:                                               ; preds = %37, %27
  call void @llvm.lifetime.end.p0(i64 4, ptr %10) #9
  %39 = load i1, ptr %5, align 1
  ret i1 %39
}

; Function Attrs: inlinehint nounwind uwtable
define internal ptr @DatumGetName(i64 noundef %0) #0 {
  %2 = alloca i64, align 8
  store i64 %0, ptr %2, align 8
  %3 = load i64, ptr %2, align 8
  %4 = call ptr @DatumGetPointer(i64 noundef %3)
  ret ptr %4
}

; Function Attrs: inlinehint nounwind uwtable
define internal ptr @DatumGetPointer(i64 noundef %0) #0 {
  %2 = alloca i64, align 8
  store i64 %0, ptr %2, align 8
  %3 = load i64, ptr %2, align 8
  %4 = inttoptr i64 %3 to ptr
  ret ptr %4
}

; Function Attrs: nounwind uwtable
define dso_local i64 @pg_convert(ptr noundef %0) #1 {
  %2 = alloca i64, align 8
  %3 = alloca ptr, align 8
  %4 = alloca ptr, align 8
  %5 = alloca ptr, align 8
  %6 = alloca i32, align 4
  %7 = alloca ptr, align 8
  %8 = alloca i32, align 4
  %9 = alloca ptr, align 8
  %10 = alloca ptr, align 8
  %11 = alloca ptr, align 8
  %12 = alloca i32, align 4
  %13 = alloca i32, align 4
  %14 = alloca i32, align 4
  store ptr %0, ptr %3, align 8
  call void @llvm.lifetime.start.p0(i64 8, ptr %4) #9
  %15 = load ptr, ptr %3, align 8
  %16 = getelementptr inbounds nuw %struct.FunctionCallInfoBaseData, ptr %15, i32 0, i32 6
  %17 = getelementptr inbounds [0 x %struct.NullableDatum], ptr %16, i64 0, i64 0
  %18 = getelementptr inbounds nuw %struct.NullableDatum, ptr %17, i32 0, i32 0
  %19 = load i64, ptr %18, align 8
  %20 = call ptr @DatumGetPointer(i64 noundef %19)
  %21 = call ptr @pg_detoast_datum_packed(ptr noundef %20)
  store ptr %21, ptr %4, align 8
  call void @llvm.lifetime.start.p0(i64 8, ptr %5) #9
  %22 = load ptr, ptr %3, align 8
  %23 = getelementptr inbounds nuw %struct.FunctionCallInfoBaseData, ptr %22, i32 0, i32 6
  %24 = getelementptr inbounds [0 x %struct.NullableDatum], ptr %23, i64 0, i64 1
  %25 = getelementptr inbounds nuw %struct.NullableDatum, ptr %24, i32 0, i32 0
  %26 = load i64, ptr %25, align 8
  %27 = call ptr @DatumGetName(i64 noundef %26)
  %28 = getelementptr inbounds nuw %struct.nameData, ptr %27, i32 0, i32 0
  %29 = getelementptr inbounds [64 x i8], ptr %28, i64 0, i64 0
  store ptr %29, ptr %5, align 8
  call void @llvm.lifetime.start.p0(i64 4, ptr %6) #9
  %30 = load ptr, ptr %5, align 8
  %31 = call i32 @pg_char_to_encoding_private(ptr noundef %30)
  store i32 %31, ptr %6, align 4
  call void @llvm.lifetime.start.p0(i64 8, ptr %7) #9
  %32 = load ptr, ptr %3, align 8
  %33 = getelementptr inbounds nuw %struct.FunctionCallInfoBaseData, ptr %32, i32 0, i32 6
  %34 = getelementptr inbounds [0 x %struct.NullableDatum], ptr %33, i64 0, i64 2
  %35 = getelementptr inbounds nuw %struct.NullableDatum, ptr %34, i32 0, i32 0
  %36 = load i64, ptr %35, align 8
  %37 = call ptr @DatumGetName(i64 noundef %36)
  %38 = getelementptr inbounds nuw %struct.nameData, ptr %37, i32 0, i32 0
  %39 = getelementptr inbounds [64 x i8], ptr %38, i64 0, i64 0
  store ptr %39, ptr %7, align 8
  call void @llvm.lifetime.start.p0(i64 4, ptr %8) #9
  %40 = load ptr, ptr %7, align 8
  %41 = call i32 @pg_char_to_encoding_private(ptr noundef %40)
  store i32 %41, ptr %8, align 4
  call void @llvm.lifetime.start.p0(i64 8, ptr %9) #9
  call void @llvm.lifetime.start.p0(i64 8, ptr %10) #9
  call void @llvm.lifetime.start.p0(i64 8, ptr %11) #9
  call void @llvm.lifetime.start.p0(i64 4, ptr %12) #9
  %42 = load i32, ptr %6, align 4
  %43 = icmp slt i32 %42, 0
  br i1 %43, label %44, label %57

44:                                               ; preds = %1
  br label %45

45:                                               ; preds = %44
  br i1 true, label %46, label %48

46:                                               ; preds = %45
  %47 = call zeroext i1 @errstart_cold(i32 noundef 21, ptr noundef null) #10
  br i1 %47, label %50, label %54

48:                                               ; preds = %45
  %49 = call zeroext i1 @errstart(i32 noundef 21, ptr noundef null)
  br i1 %49, label %50, label %54

50:                                               ; preds = %48, %46
  %51 = call i32 @errcode(i32 noundef 50856066)
  %52 = load ptr, ptr %5, align 8
  %53 = call i32 (ptr, ...) @errmsg(ptr noundef @.str.6, ptr noundef %52)
  call void @errfinish(ptr noundef @.str.1, i32 noundef 569, ptr noundef @__func__.pg_convert)
  br label %54

54:                                               ; preds = %50, %48, %46
  unreachable

55:                                               ; No predecessors!
  br label %56

56:                                               ; preds = %55
  br label %57

57:                                               ; preds = %56, %1
  %58 = load i32, ptr %8, align 4
  %59 = icmp slt i32 %58, 0
  br i1 %59, label %60, label %73

60:                                               ; preds = %57
  br label %61

61:                                               ; preds = %60
  br i1 true, label %62, label %64

62:                                               ; preds = %61
  %63 = call zeroext i1 @errstart_cold(i32 noundef 21, ptr noundef null) #10
  br i1 %63, label %66, label %70

64:                                               ; preds = %61
  %65 = call zeroext i1 @errstart(i32 noundef 21, ptr noundef null)
  br i1 %65, label %66, label %70

66:                                               ; preds = %64, %62
  %67 = call i32 @errcode(i32 noundef 50856066)
  %68 = load ptr, ptr %7, align 8
  %69 = call i32 (ptr, ...) @errmsg(ptr noundef @.str.7, ptr noundef %68)
  call void @errfinish(ptr noundef @.str.1, i32 noundef 574, ptr noundef @__func__.pg_convert)
  br label %70

70:                                               ; preds = %66, %64, %62
  unreachable

71:                                               ; No predecessors!
  br label %72

72:                                               ; preds = %71
  br label %73

73:                                               ; preds = %72, %57
  %74 = load ptr, ptr %4, align 8
  %75 = getelementptr inbounds nuw %struct.varattrib_1b, ptr %74, i32 0, i32 0
  %76 = load i8, ptr %75, align 1
  %77 = zext i8 %76 to i32
  %78 = icmp eq i32 %77, 1
  br i1 %78, label %79, label %107

79:                                               ; preds = %73
  %80 = load ptr, ptr %4, align 8
  %81 = getelementptr inbounds nuw %struct.varattrib_1b_e, ptr %80, i32 0, i32 1
  %82 = load i8, ptr %81, align 1
  %83 = zext i8 %82 to i32
  %84 = icmp eq i32 %83, 1
  br i1 %84, label %85, label %86

85:                                               ; preds = %79
  br label %103

86:                                               ; preds = %79
  %87 = load ptr, ptr %4, align 8
  %88 = getelementptr inbounds nuw %struct.varattrib_1b_e, ptr %87, i32 0, i32 1
  %89 = load i8, ptr %88, align 1
  %90 = zext i8 %89 to i32
  %91 = and i32 %90, -2
  %92 = icmp eq i32 %91, 2
  br i1 %92, label %93, label %94

93:                                               ; preds = %86
  br label %101

94:                                               ; preds = %86
  %95 = load ptr, ptr %4, align 8
  %96 = getelementptr inbounds nuw %struct.varattrib_1b_e, ptr %95, i32 0, i32 1
  %97 = load i8, ptr %96, align 1
  %98 = zext i8 %97 to i32
  %99 = icmp eq i32 %98, 18
  %100 = select i1 %99, i64 16, i64 0
  br label %101

101:                                              ; preds = %94, %93
  %102 = phi i64 [ 8, %93 ], [ %100, %94 ]
  br label %103

103:                                              ; preds = %101, %85
  %104 = phi i64 [ 8, %85 ], [ %102, %101 ]
  %105 = add i64 2, %104
  %106 = sub i64 %105, 2
  br label %133

107:                                              ; preds = %73
  %108 = load ptr, ptr %4, align 8
  %109 = getelementptr inbounds nuw %struct.varattrib_1b, ptr %108, i32 0, i32 0
  %110 = load i8, ptr %109, align 1
  %111 = zext i8 %110 to i32
  %112 = and i32 %111, 1
  %113 = icmp eq i32 %112, 1
  br i1 %113, label %114, label %123

114:                                              ; preds = %107
  %115 = load ptr, ptr %4, align 8
  %116 = getelementptr inbounds nuw %struct.varattrib_1b, ptr %115, i32 0, i32 0
  %117 = load i8, ptr %116, align 1
  %118 = zext i8 %117 to i32
  %119 = ashr i32 %118, 1
  %120 = and i32 %119, 127
  %121 = sext i32 %120 to i64
  %122 = sub i64 %121, 1
  br label %131

123:                                              ; preds = %107
  %124 = load ptr, ptr %4, align 8
  %125 = getelementptr inbounds nuw %struct.anon, ptr %124, i32 0, i32 0
  %126 = load i32, ptr %125, align 4
  %127 = lshr i32 %126, 2
  %128 = and i32 %127, 1073741823
  %129 = sub i32 %128, 4
  %130 = zext i32 %129 to i64
  br label %131

131:                                              ; preds = %123, %114
  %132 = phi i64 [ %122, %114 ], [ %130, %123 ]
  br label %133

133:                                              ; preds = %131, %103
  %134 = phi i64 [ %106, %103 ], [ %132, %131 ]
  %135 = trunc i64 %134 to i32
  store i32 %135, ptr %12, align 4
  %136 = load ptr, ptr %4, align 8
  %137 = getelementptr inbounds nuw %struct.varattrib_1b, ptr %136, i32 0, i32 0
  %138 = load i8, ptr %137, align 1
  %139 = zext i8 %138 to i32
  %140 = and i32 %139, 1
  %141 = icmp eq i32 %140, 1
  br i1 %141, label %142, label %146

142:                                              ; preds = %133
  %143 = load ptr, ptr %4, align 8
  %144 = getelementptr inbounds nuw %struct.varattrib_1b, ptr %143, i32 0, i32 1
  %145 = getelementptr inbounds [0 x i8], ptr %144, i64 0, i64 0
  br label %150

146:                                              ; preds = %133
  %147 = load ptr, ptr %4, align 8
  %148 = getelementptr inbounds nuw %struct.anon, ptr %147, i32 0, i32 1
  %149 = getelementptr inbounds [0 x i8], ptr %148, i64 0, i64 0
  br label %150

150:                                              ; preds = %146, %142
  %151 = phi ptr [ %145, %142 ], [ %149, %146 ]
  store ptr %151, ptr %9, align 8
  %152 = load i32, ptr %6, align 4
  %153 = load ptr, ptr %9, align 8
  %154 = load i32, ptr %12, align 4
  %155 = call zeroext i1 @pg_verify_mbstr(i32 noundef %152, ptr noundef %153, i32 noundef %154, i1 noundef zeroext false)
  br label %156

156:                                              ; preds = %150
  br label %157

157:                                              ; preds = %156
  br label %158

158:                                              ; preds = %157
  store i32 1, ptr %13, align 4
  %159 = load ptr, ptr %9, align 8
  %160 = load i32, ptr %12, align 4
  %161 = load i32, ptr %6, align 4
  %162 = load i32, ptr %8, align 4
  %163 = call ptr @pg_do_encoding_conversion(ptr noundef %159, i32 noundef %160, i32 noundef %161, i32 noundef %162)
  store ptr %163, ptr %10, align 8
  %164 = load ptr, ptr %10, align 8
  %165 = load ptr, ptr %9, align 8
  %166 = icmp eq ptr %164, %165
  br i1 %166, label %167, label %170

167:                                              ; preds = %158
  %168 = load ptr, ptr %4, align 8
  %169 = call i64 @PointerGetDatum(ptr noundef %168)
  store i64 %169, ptr %2, align 8
  store i32 1, ptr %14, align 4
  br label %206

170:                                              ; preds = %158
  %171 = load ptr, ptr %10, align 8
  %172 = call i64 @strlen(ptr noundef %171) #11
  %173 = trunc i64 %172 to i32
  store i32 %173, ptr %12, align 4
  %174 = load i32, ptr %12, align 4
  %175 = add i32 %174, 4
  %176 = sext i32 %175 to i64
  %177 = call ptr @palloc(i64 noundef %176)
  store ptr %177, ptr %11, align 8
  %178 = load i32, ptr %12, align 4
  %179 = add i32 %178, 4
  %180 = shl i32 %179, 2
  %181 = load ptr, ptr %11, align 8
  %182 = getelementptr inbounds nuw %struct.anon, ptr %181, i32 0, i32 0
  store i32 %180, ptr %182, align 4
  %183 = load ptr, ptr %11, align 8
  %184 = getelementptr inbounds nuw %struct.anon, ptr %183, i32 0, i32 1
  %185 = getelementptr inbounds [0 x i8], ptr %184, i64 0, i64 0
  %186 = load ptr, ptr %10, align 8
  %187 = load i32, ptr %12, align 4
  %188 = sext i32 %187 to i64
  call void @llvm.memcpy.p0.p0.i64(ptr align 4 %185, ptr align 1 %186, i64 %188, i1 false)
  %189 = load ptr, ptr %10, align 8
  call void @pfree(ptr noundef %189)
  br label %190

190:                                              ; preds = %170
  %191 = load ptr, ptr %4, align 8
  %192 = load ptr, ptr %3, align 8
  %193 = getelementptr inbounds nuw %struct.FunctionCallInfoBaseData, ptr %192, i32 0, i32 6
  %194 = getelementptr inbounds [0 x %struct.NullableDatum], ptr %193, i64 0, i64 0
  %195 = getelementptr inbounds nuw %struct.NullableDatum, ptr %194, i32 0, i32 0
  %196 = load i64, ptr %195, align 8
  %197 = call ptr @DatumGetPointer(i64 noundef %196)
  %198 = icmp ne ptr %191, %197
  br i1 %198, label %199, label %201

199:                                              ; preds = %190
  %200 = load ptr, ptr %4, align 8
  call void @pfree(ptr noundef %200)
  br label %201

201:                                              ; preds = %199, %190
  br label %202

202:                                              ; preds = %201
  br label %203

203:                                              ; preds = %202
  %204 = load ptr, ptr %11, align 8
  %205 = call i64 @PointerGetDatum(ptr noundef %204)
  store i64 %205, ptr %2, align 8
  store i32 1, ptr %14, align 4
  br label %206

206:                                              ; preds = %203, %167
  call void @llvm.lifetime.end.p0(i64 4, ptr %12) #9
  call void @llvm.lifetime.end.p0(i64 8, ptr %11) #9
  call void @llvm.lifetime.end.p0(i64 8, ptr %10) #9
  call void @llvm.lifetime.end.p0(i64 8, ptr %9) #9
  call void @llvm.lifetime.end.p0(i64 4, ptr %8) #9
  call void @llvm.lifetime.end.p0(i64 8, ptr %7) #9
  call void @llvm.lifetime.end.p0(i64 4, ptr %6) #9
  call void @llvm.lifetime.end.p0(i64 8, ptr %5) #9
  call void @llvm.lifetime.end.p0(i64 8, ptr %4) #9
  %207 = load i64, ptr %2, align 8
  ret i64 %207
}