; Function Attrs: nounwind uwtable
define dso_local i64 @pg_convert(ptr noundef readonly captures(none) %0) #0 {
  %2 = getelementptr inbounds nuw i8, ptr %0, i64 32
  %3 = load i64, ptr %2, align 8
  %4 = inttoptr i64 %3 to ptr
  %5 = tail call ptr @pg_detoast_datum_packed(ptr noundef %4) #13
  %6 = getelementptr inbounds nuw i8, ptr %0, i64 48
  %7 = load i64, ptr %6, align 8
  %8 = inttoptr i64 %7 to ptr
  %9 = tail call i32 @pg_char_to_encoding_private(ptr noundef %8) #13
  %10 = getelementptr inbounds nuw i8, ptr %0, i64 64
  %11 = load i64, ptr %10, align 8
  %12 = inttoptr i64 %11 to ptr
  %13 = tail call i32 @pg_char_to_encoding_private(ptr noundef %12) #13
  %14 = icmp slt i32 %9, 0
  br i1 %14, label %15, label %19

15:                                               ; preds = %1
  %16 = tail call zeroext i1 @errstart_cold(i32 noundef 21, ptr noundef null) #14
  tail call void @llvm.assume(i1 %16)
  %17 = tail call i32 @errcode(i32 noundef 50856066) #13
  %18 = tail call i32 (ptr, ...) @errmsg(ptr noundef nonnull @.str.6, ptr noundef %8) #13
  tail call void @errfinish(ptr noundef nonnull @.str.1, i32 noundef 569, ptr noundef nonnull @__func__.pg_convert) #13
  unreachable

19:                                               ; preds = %1
  %20 = icmp slt i32 %13, 0
  br i1 %20, label %21, label %25

21:                                               ; preds = %19
  %22 = tail call zeroext i1 @errstart_cold(i32 noundef 21, ptr noundef null) #14
  tail call void @llvm.assume(i1 %22)
  %23 = tail call i32 @errcode(i32 noundef 50856066) #13
  %24 = tail call i32 (ptr, ...) @errmsg(ptr noundef nonnull @.str.7, ptr noundef %12) #13
  tail call void @errfinish(ptr noundef nonnull @.str.1, i32 noundef 574, ptr noundef nonnull @__func__.pg_convert) #13
  unreachable

25:                                               ; preds = %19
  %26 = load i8, ptr %5, align 1
  %27 = zext i8 %26 to i32
  %28 = icmp eq i8 %26, 1
  br i1 %28, label %29, label %38

29:                                               ; preds = %25
  %30 = getelementptr inbounds nuw i8, ptr %5, i64 1
  %31 = load i8, ptr %30, align 1
  %32 = icmp eq i8 %31, 1
  %33 = and i8 %31, -2
  %34 = icmp eq i8 %33, 2
  %or.cond = or i1 %32, %34
  %35 = icmp eq i8 %31, 18
  %36 = select i1 %35, i32 16, i32 0
  %37 = select i1 %or.cond, i32 8, i32 %36
  br label %47

38:                                               ; preds = %25
  %39 = and i32 %27, 1
  %.not = icmp eq i32 %39, 0
  br i1 %.not, label %43, label %40

40:                                               ; preds = %38
  %41 = lshr i32 %27, 1
  %42 = add nsw i32 %41, -1
  br label %47

43:                                               ; preds = %38
  %44 = load i32, ptr %5, align 4
  %45 = lshr i32 %44, 2
  %46 = add nsw i32 %45, -4
  br label %47

47:                                               ; preds = %40, %43, %29
  %48 = phi i32 [ %37, %29 ], [ %42, %40 ], [ %46, %43 ]
  %49 = and i8 %26, 1
  %.not47 = icmp eq i8 %49, 0
  %.v = select i1 %.not47, i64 4, i64 1
  %50 = getelementptr inbounds nuw i8, ptr %5, i64 %.v
  %51 = zext nneg i32 %9 to i64
  %52 = getelementptr inbounds nuw [0 x %struct.pg_wchar_tbl], ptr @pg_wchar_table, i64 0, i64 %51, i32 5
  %53 = load ptr, ptr %52, align 8
  %54 = tail call i32 %53(ptr noundef nonnull %50, i32 noundef %48) #13
  %.not.i = icmp eq i32 %54, %48
  br i1 %.not.i, label %pg_verify_mbstr.exit, label %55

55:                                               ; preds = %47
  %56 = sext i32 %54 to i64
  %57 = getelementptr inbounds i8, ptr %50, i64 %56
  %58 = sub i32 %48, %54
  tail call void @report_invalid_encoding(i32 noundef %9, ptr noundef nonnull %57, i32 noundef %58) #15
  unreachable

pg_verify_mbstr.exit:                             ; preds = %47
  %59 = tail call ptr @pg_do_encoding_conversion(ptr noundef nonnull %50, i32 noundef %48, i32 noundef %9, i32 noundef %13)
  %60 = icmp eq ptr %59, %50
  br i1 %60, label %73, label %61

61:                                               ; preds = %pg_verify_mbstr.exit
  %62 = tail call i64 @strlen(ptr noundef nonnull dereferenceable(1) %59) #16
  %63 = trunc i64 %62 to i32
  %64 = add i32 %63, 4
  %65 = sext i32 %64 to i64
  %66 = tail call ptr @palloc(i64 noundef %65) #13
  %67 = shl i32 %64, 2
  store i32 %67, ptr %66, align 4
  %68 = getelementptr inbounds nuw i8, ptr %66, i64 4
  %sext = shl i64 %62, 32
  %69 = ashr exact i64 %sext, 32
  tail call void @llvm.memcpy.p0.p0.i64(ptr nonnull align 4 %68, ptr nonnull align 1 %59, i64 %69, i1 false)
  tail call void @pfree(ptr noundef nonnull %59) #13
  %70 = load i64, ptr %2, align 8
  %71 = inttoptr i64 %70 to ptr
  %.not48 = icmp eq ptr %5, %71
  br i1 %.not48, label %73, label %72

72:                                               ; preds = %61
  tail call void @pfree(ptr noundef nonnull %5) #13
  br label %73

73:                                               ; preds = %61, %72, %pg_verify_mbstr.exit
  %.0.in = phi ptr [ %5, %pg_verify_mbstr.exit ], [ %66, %72 ], [ %66, %61 ]
  %.0 = ptrtoint ptr %.0.in to i64
  ret i64 %.0
}